; Function Attrs: mustprogress nounwind uwtable
define hidden void @_ZNK5clang7targets13TCETargetInfo16getTargetDefinesERKNS_11LangOptionsERNS_12MacroBuilderE(ptr nocapture nonnull readnone align 8 %0, ptr noundef nonnull align 8 dereferenceable(841) %1, ptr noundef nonnull align 8 dereferenceable(8) %2) unnamed_addr #0 align 2 {
  %4 = alloca %"class.llvm::Twine", align 8
  %5 = alloca %"class.llvm::Twine", align 8
  %6 = alloca %"class.llvm::Twine", align 8
  %7 = alloca %"class.llvm::Twine", align 8
  tail call void @_ZN5clang7targets9DefineStdERNS_12MacroBuilderEN4llvm9StringRefERKNS_11LangOptionsE(ptr noundef nonnull align 8 dereferenceable(8) %2, ptr nonnull @.str, i64 3, ptr noundef nonnull align 8 dereferenceable(841) %1) #7
  %8 = getelementptr inbounds nuw i8, ptr %4, i64 32
  %9 = getelementptr inbounds nuw i8, ptr %4, i64 33
  store i8 1, ptr %9, align 1
  store ptr @.str.1, ptr %4, align 8
  store i8 3, ptr %8, align 8
  %10 = getelementptr inbounds nuw i8, ptr %5, i64 32
  %11 = getelementptr inbounds nuw i8, ptr %5, i64 33
  store i8 1, ptr %11, align 1
  store ptr @.str.2, ptr %5, align 8
  store i8 3, ptr %10, align 8
  call void @_ZN5clang12MacroBuilder11defineMacroERKN4llvm5TwineES4_(ptr noundef nonnull align 8 dereferenceable(8) %2, ptr noundef nonnull align 8 dereferenceable(34) %4, ptr noundef nonnull align 8 dereferenceable(34) %5)
  %12 = getelementptr inbounds nuw i8, ptr %6, i64 32
  %13 = getelementptr inbounds nuw i8, ptr %6, i64 33
  store i8 1, ptr %13, align 1
  store ptr @.str.3, ptr %6, align 8
  store i8 3, ptr %12, align 8
  %14 = getelementptr inbounds nuw i8, ptr %7, i64 32
  %15 = getelementptr inbounds nuw i8, ptr %7, i64 33
  store i8 1, ptr %15, align 1
  store ptr @.str.2, ptr %7, align 8
  store i8 3, ptr %14, align 8
  call void @_ZN5clang12MacroBuilder11defineMacroERKN4llvm5TwineES4_(ptr noundef nonnull align 8 dereferenceable(8) %2, ptr noundef nonnull align 8 dereferenceable(34) %6, ptr noundef nonnull align 8 dereferenceable(34) %7)
  ret void
}